; Function Attrs: mustprogress nounwind uwtable
define internal range(i16 0, 512) i16 @_ZN12_GLOBAL__N_14Wasm8slotInfoERKN4llvm10DataLayoutEPNS1_4TypeE(ptr nocapture nonnull readnone align 8 %0, ptr noundef nonnull align 8 dereferenceable(512) %1, ptr noundef %2) unnamed_addr #0 align 2 {
  %4 = load ptr, ptr %2, align 8
  %5 = tail call i8 @_ZNK4llvm10DataLayout15getABITypeAlignEPNS_4TypeE(ptr noundef nonnull align 8 dereferenceable(512) %1, ptr noundef nonnull %2) #20
  %spec.select = tail call i8 @llvm.umax.i8(i8 %5, i8 2)
  %6 = getelementptr inbounds nuw i8, ptr %2, i64 8
  %7 = load i32, ptr %6, align 8
  %8 = and i32 %7, 255
  %.not = icmp eq i32 %8, 15
  br i1 %.not, label %9, label %16

9:                                                ; preds = %3
  %10 = getelementptr inbounds nuw i8, ptr %2, i64 12
  %11 = load i32, ptr %10, align 4
  %12 = icmp ugt i32 %11, 1
  br i1 %12, label %13, label %16

13:                                               ; preds = %9
  %14 = tail call noundef ptr @_ZN4llvm11PointerType3getERNS_11LLVMContextEj(ptr noundef nonnull align 8 dereferenceable(8) %4, i32 noundef 0) #20
  %15 = tail call i8 @_ZNK4llvm10DataLayout15getABITypeAlignEPNS_4TypeE(ptr noundef nonnull align 8 dereferenceable(512) %1, ptr noundef %14) #20
  br label %16

16:                                               ; preds = %3, %9, %13
  %.sroa.010.0 = phi i8 [ %15, %13 ], [ %spec.select, %9 ], [ %spec.select, %3 ]
  %.sroa.3.0 = phi i16 [ 256, %13 ], [ 0, %9 ], [ 0, %3 ]
  %.sroa.010.0.insert.ext = zext i8 %.sroa.010.0 to i16
  %.sroa.010.0.insert.insert = or disjoint i16 %.sroa.3.0, %.sroa.010.0.insert.ext
  ret i16 %.sroa.010.0.insert.insert
}